target datalayout = "e-m:e-p270:32:32-p271:32:32-p272:64:64-i64:64-i128:128-f80:128-n8:16:32:64-S128"
target triple = "x86_64-unknown-linux-gnu"

%class.btVector3 = type { [4 x float] }
%class.btMatrix3x3 = type { [3 x %class.btVector3] }
%class.btTransform = type { %class.btMatrix3x3, %class.btVector3 }
%class.btSoftBody = type { %class.btCollisionObject.base, [4 x i8], %class.btAlignedObjectArray, ptr, %"struct.btSoftBody::Config", %"struct.btSoftBody::SolverState", [4 x i8], %"struct.btSoftBody::Pose", ptr, ptr, %class.btAlignedObjectArray.16, %class.btAlignedObjectArray.20, %class.btAlignedObjectArray.24, %class.btAlignedObjectArray.28, %class.btAlignedObjectArray.32, %class.btAlignedObjectArray.36, %class.btAlignedObjectArray.40, %class.btAlignedObjectArray.44, %class.btAlignedObjectArray.44, %class.btAlignedObjectArray.48, %class.btAlignedObjectArray.52, %class.btAlignedObjectArray.56, %class.btAlignedObjectArray.60, %class.btAlignedObjectArray.64, %class.btAlignedObjectArray.68, %class.btAlignedObjectArray.64, %class.btAlignedObjectArray.72, %class.btAlignedObjectArray.76, %class.btAlignedObjectArray.80, float, [2 x %class.btVector3], i8, %struct.btDbvt, %struct.btDbvt, ptr, %struct.btDbvt, %class.btAlignedObjectArray.88, float, float, float, [4 x i8], %class.btAlignedObjectArray.8, float, float, i8, [7 x i8], %class.btAlignedObjectArray.8, %class.btAlignedObjectArray.92, %class.btAlignedObjectArray.96, %class.btAlignedObjectArray.12, i8, i8, [6 x i8], %class.btAlignedObjectArray.100, %class.btVector3, float, i8, [3 x i8], %class.btAlignedObjectArray.104 }
%class.btCollisionObject.base = type <{ ptr, %class.btTransform, %class.btTransform, %class.btVector3, %class.btVector3, %class.btVector3, i32, float, ptr, ptr, ptr, ptr, i32, i32, i32, i32, i32, float, float, float, float, float, float, float, i32, [4 x i8], ptr, i32, i32, i32, float, float, float, i32, [4 x i8], %class.btAlignedObjectArray, i32, %class.btVector3 }>
%class.btAlignedObjectArray = type <{ %class.btAlignedAllocator, [3 x i8], i32, i32, [4 x i8], ptr, i8, [7 x i8] }>
%class.btAlignedAllocator = type { i8 }
%"struct.btSoftBody::Config" = type { i32, float, float, float, float, float, float, float, float, float, float, float, float, float, float, float, float, float, float, float, float, i32, i32, i32, i32, i32, %class.btAlignedObjectArray.0, %class.btAlignedObjectArray.4, %class.btAlignedObjectArray.4, float, float }
%class.btAlignedObjectArray.0 = type <{ %class.btAlignedAllocator.1, [3 x i8], i32, i32, [4 x i8], ptr, i8, [7 x i8] }>
%class.btAlignedAllocator.1 = type { i8 }
%class.btAlignedObjectArray.4 = type <{ %class.btAlignedAllocator.5, [3 x i8], i32, i32, [4 x i8], ptr, i8, [7 x i8] }>
%class.btAlignedAllocator.5 = type { i8 }
%"struct.btSoftBody::SolverState" = type { float, float, float, float, float }
%"struct.btSoftBody::Pose" = type { i8, i8, float, %class.btAlignedObjectArray.8, %class.btAlignedObjectArray.12, %class.btVector3, %class.btMatrix3x3, %class.btMatrix3x3, %class.btMatrix3x3 }
%class.btAlignedObjectArray.16 = type <{ %class.btAlignedAllocator.17, [3 x i8], i32, i32, [4 x i8], ptr, i8, [7 x i8] }>
%class.btAlignedAllocator.17 = type { i8 }
%class.btAlignedObjectArray.20 = type <{ %class.btAlignedAllocator.21, [3 x i8], i32, i32, [4 x i8], ptr, i8, [7 x i8] }>
%class.btAlignedAllocator.21 = type { i8 }
%class.btAlignedObjectArray.24 = type <{ %class.btAlignedAllocator.25, [3 x i8], i32, i32, [4 x i8], ptr, i8, [7 x i8] }>
%class.btAlignedAllocator.25 = type { i8 }
%class.btAlignedObjectArray.28 = type <{ %class.btAlignedAllocator.29, [3 x i8], i32, i32, [4 x i8], ptr, i8, [7 x i8] }>
%class.btAlignedAllocator.29 = type { i8 }
%class.btAlignedObjectArray.32 = type <{ %class.btAlignedAllocator.33, [3 x i8], i32, i32, [4 x i8], ptr, i8, [7 x i8] }>
%class.btAlignedAllocator.33 = type { i8 }
%class.btAlignedObjectArray.36 = type <{ %class.btAlignedAllocator.37, [3 x i8], i32, i32, [4 x i8], ptr, i8, [7 x i8] }>
%class.btAlignedAllocator.37 = type { i8 }
%class.btAlignedObjectArray.40 = type <{ %class.btAlignedAllocator.41, [3 x i8], i32, i32, [4 x i8], ptr, i8, [7 x i8] }>
%class.btAlignedAllocator.41 = type { i8 }
%class.btAlignedObjectArray.44 = type <{ %class.btAlignedAllocator.45, [3 x i8], i32, i32, [4 x i8], ptr, i8, [7 x i8] }>
%class.btAlignedAllocator.45 = type { i8 }
%class.btAlignedObjectArray.48 = type <{ %class.btAlignedAllocator.49, [3 x i8], i32, i32, [4 x i8], ptr, i8, [7 x i8] }>
%class.btAlignedAllocator.49 = type { i8 }
%class.btAlignedObjectArray.52 = type <{ %class.btAlignedAllocator.53, [3 x i8], i32, i32, [4 x i8], ptr, i8, [7 x i8] }>
%class.btAlignedAllocator.53 = type { i8 }
%class.btAlignedObjectArray.56 = type <{ %class.btAlignedAllocator.57, [3 x i8], i32, i32, [4 x i8], ptr, i8, [7 x i8] }>
%class.btAlignedAllocator.57 = type { i8 }
%class.btAlignedObjectArray.60 = type <{ %class.btAlignedAllocator.61, [3 x i8], i32, i32, [4 x i8], ptr, i8, [7 x i8] }>
%class.btAlignedAllocator.61 = type { i8 }
%class.btAlignedObjectArray.68 = type <{ %class.btAlignedAllocator.69, [3 x i8], i32, i32, [4 x i8], ptr, i8, [7 x i8] }>
%class.btAlignedAllocator.69 = type { i8 }
%class.btAlignedObjectArray.64 = type <{ %class.btAlignedAllocator.65, [3 x i8], i32, i32, [4 x i8], ptr, i8, [7 x i8] }>
%class.btAlignedAllocator.65 = type { i8 }
%class.btAlignedObjectArray.72 = type <{ %class.btAlignedAllocator.73, [3 x i8], i32, i32, [4 x i8], ptr, i8, [7 x i8] }>
%class.btAlignedAllocator.73 = type { i8 }
%class.btAlignedObjectArray.76 = type <{ %class.btAlignedAllocator.77, [3 x i8], i32, i32, [4 x i8], ptr, i8, [7 x i8] }>
%class.btAlignedAllocator.77 = type { i8 }
%class.btAlignedObjectArray.80 = type <{ %class.btAlignedAllocator.81, [3 x i8], i32, i32, [4 x i8], ptr, i8, [7 x i8] }>
%class.btAlignedAllocator.81 = type { i8 }
%struct.btDbvt = type { ptr, ptr, i32, i32, i32, [4 x i8], %class.btAlignedObjectArray.84 }
%class.btAlignedObjectArray.84 = type <{ %class.btAlignedAllocator.85, [3 x i8], i32, i32, [4 x i8], ptr, i8, [7 x i8] }>
%class.btAlignedAllocator.85 = type { i8 }
%class.btAlignedObjectArray.88 = type <{ %class.btAlignedAllocator.89, [3 x i8], i32, i32, [4 x i8], ptr, i8, [7 x i8] }>
%class.btAlignedAllocator.89 = type { i8 }
%class.btAlignedObjectArray.8 = type <{ %class.btAlignedAllocator.9, [3 x i8], i32, i32, [4 x i8], ptr, i8, [7 x i8] }>
%class.btAlignedAllocator.9 = type { i8 }
%class.btAlignedObjectArray.92 = type <{ %class.btAlignedAllocator.93, [3 x i8], i32, i32, [4 x i8], ptr, i8, [7 x i8] }>
%class.btAlignedAllocator.93 = type { i8 }
%class.btAlignedObjectArray.96 = type <{ %class.btAlignedAllocator.97, [3 x i8], i32, i32, [4 x i8], ptr, i8, [7 x i8] }>
%class.btAlignedAllocator.97 = type { i8 }
%class.btAlignedObjectArray.12 = type <{ %class.btAlignedAllocator.13, [3 x i8], i32, i32, [4 x i8], ptr, i8, [7 x i8] }>
%class.btAlignedAllocator.13 = type { i8 }
%class.btAlignedObjectArray.100 = type <{ %class.btAlignedAllocator.101, [3 x i8], i32, i32, [4 x i8], ptr, i8, [7 x i8] }>
%class.btAlignedAllocator.101 = type { i8 }
%class.btAlignedObjectArray.104 = type <{ %class.btAlignedAllocator.105, [3 x i8], i32, i32, [4 x i8], ptr, i8, [7 x i8] }>
%class.btAlignedAllocator.105 = type { i8 }

; Function Attrs: mustprogress nounwind uwtable
define dso_local noundef ptr @_ZN10btSoftBody9getSolverENS_8ePSolver1_E(i32 noundef %solver) #1 align 2 {
entry:
  %retval = alloca ptr, align 8
  %solver.addr = alloca i32, align 4
  store i32 %solver, ptr %solver.addr, align 4
  %0 = load i32, ptr %solver.addr, align 4
  switch i32 %0, label %sw.default [
    i32 1, label %sw.bb
    i32 0, label %sw.bb1
    i32 2, label %sw.bb2
    i32 3, label %sw.bb3
  ]

sw.bb:                                            ; preds = %entry
  store ptr @_ZN10btSoftBody14PSolve_AnchorsEPS_ff, ptr %retval, align 8
  br label %return

sw.bb1:                                           ; preds = %entry
  store ptr @_ZN10btSoftBody12PSolve_LinksEPS_ff, ptr %retval, align 8
  br label %return

sw.bb2:                                           ; preds = %entry
  store ptr @_ZN10btSoftBody16PSolve_RContactsEPS_ff, ptr %retval, align 8
  br label %return

sw.bb3:                                           ; preds = %entry
  store ptr @_ZN10btSoftBody16PSolve_SContactsEPS_ff, ptr %retval, align 8
  br label %return

sw.default:                                       ; preds = %entry
  br label %sw.epilog

sw.epilog:                                        ; preds = %sw.default
  store ptr null, ptr %retval, align 8
  br label %return

return:                                           ; preds = %sw.epilog, %sw.bb3, %sw.bb2, %sw.bb1, %sw.bb
  %1 = load ptr, ptr %retval, align 8
  ret ptr %1
}

; Function Attrs: mustprogress nounwind uwtable
define linkonce_odr dso_local noundef nonnull align 4 dereferenceable(4) ptr @_ZN20btAlignedObjectArrayIN10btSoftBody8ePSolver1_EEixEi(ptr noundef nonnull align 8 dereferenceable(25) %this, i32 noundef %n) #1 comdat align 2 {
entry:
  %this.addr = alloca ptr, align 8
  %n.addr = alloca i32, align 4
  store ptr %this, ptr %this.addr, align 8
  store i32 %n, ptr %n.addr, align 4
  %this1 = load ptr, ptr %this.addr, align 8
  %m_data = getelementptr inbounds %class.btAlignedObjectArray.4, ptr %this1, i32 0, i32 5
  %0 = load ptr, ptr %m_data, align 8
  %1 = load i32, ptr %n.addr, align 4
  %idxprom = sext i32 %1 to i64
  %arrayidx = getelementptr inbounds i32, ptr %0, i64 %idxprom
  ret ptr %arrayidx
}

; Function Attrs: mustprogress nounwind uwtable
define linkonce_odr dso_local noundef i32 @_ZNK20btAlignedObjectArrayIN10btSoftBody8ePSolver1_EE4sizeEv(ptr noundef nonnull align 8 dereferenceable(25) %this) #1 comdat align 2 {
entry:
  %this.addr = alloca ptr, align 8
  store ptr %this, ptr %this.addr, align 8
  %this1 = load ptr, ptr %this.addr, align 8
  %m_size = getelementptr inbounds %class.btAlignedObjectArray.4, ptr %this1, i32 0, i32 2
  %0 = load i32, ptr %m_size, align 4
  ret i32 %0
}

; Function Attrs: mustprogress uwtable
define dso_local void @_ZN10btSoftBody11staticSolveEi(ptr noundef nonnull align 8 dereferenceable(2064) %this, i32 noundef %iterations) #5 align 2 {
entry:
  %this.addr = alloca ptr, align 8
  %iterations.addr = alloca i32, align 4
  %isolve = alloca i32, align 4
  %iseq = alloca i32, align 4
  store ptr %this, ptr %this.addr, align 8
  store i32 %iterations, ptr %iterations.addr, align 4
  %this1 = load ptr, ptr %this.addr, align 8
  store i32 0, ptr %isolve, align 4
  br label %for.cond

for.cond:                                         ; preds = %for.inc9, %entry
  %0 = load i32, ptr %isolve, align 4
  %1 = load i32, ptr %iterations.addr, align 4
  %cmp = icmp slt i32 %0, %1
  br i1 %cmp, label %for.body, label %for.end11

for.body:                                         ; preds = %for.cond
  store i32 0, ptr %iseq, align 4
  br label %for.cond2

for.cond2:                                        ; preds = %for.inc, %for.body
  %2 = load i32, ptr %iseq, align 4
  %m_cfg = getelementptr inbounds %class.btSoftBody, ptr %this1, i32 0, i32 4
  %m_psequence = getelementptr inbounds %"struct.btSoftBody::Config", ptr %m_cfg, i32 0, i32 27
  %call = call noundef i32 @_ZNK20btAlignedObjectArrayIN10btSoftBody8ePSolver1_EE4sizeEv(ptr noundef nonnull align 8 dereferenceable(25) %m_psequence)
  %cmp3 = icmp slt i32 %2, %call
  br i1 %cmp3, label %for.body4, label %for.end

for.body4:                                        ; preds = %for.cond2
  %m_cfg5 = getelementptr inbounds %class.btSoftBody, ptr %this1, i32 0, i32 4
  %m_psequence6 = getelementptr inbounds %"struct.btSoftBody::Config", ptr %m_cfg5, i32 0, i32 27
  %3 = load i32, ptr %iseq, align 4
  %call7 = call noundef nonnull align 4 dereferenceable(4) ptr @_ZN20btAlignedObjectArrayIN10btSoftBody8ePSolver1_EEixEi(ptr noundef nonnull align 8 dereferenceable(25) %m_psequence6, i32 noundef %3)
  %4 = load i32, ptr %call7, align 4
  %call8 = call noundef ptr @_ZN10btSoftBody9getSolverENS_8ePSolver1_E(i32 noundef %4)
  call void %call8(ptr noundef %this1, float noundef 1.000000e+00, float noundef 0.000000e+00)
  br label %for.inc

for.inc:                                          ; preds = %for.body4
  %5 = load i32, ptr %iseq, align 4
  %inc = add nsw i32 %5, 1
  store i32 %inc, ptr %iseq, align 4
  br label %for.cond2, !llvm.loop !197

for.end:                                          ; preds = %for.cond2
  br label %for.inc9

for.inc9:                                         ; preds = %for.end
  %6 = load i32, ptr %isolve, align 4
  %inc10 = add nsw i32 %6, 1
  store i32 %inc10, ptr %isolve, align 4
  br label %for.cond, !llvm.loop !198

for.end11:                                        ; preds = %for.cond
  ret void
}