; Function Attrs: mustprogress uwtable
define dso_local void @_ZN10btSoftBody11staticSolveEi(ptr noundef nonnull align 8 dereferenceable(2064) %this, i32 noundef %iterations) local_unnamed_addr #4 align 2 {
entry:
  %cmp6 = icmp sgt i32 %iterations, 0
  br i1 %cmp6, label %for.cond2.preheader.lr.ph, label %for.end11

for.cond2.preheader.lr.ph:                        ; preds = %entry
  %m_size.i = getelementptr inbounds i8, ptr %this, i64 556
  %m_data.i = getelementptr inbounds i8, ptr %this, i64 568
  %0 = load i32, ptr %m_size.i, align 4
  %1 = icmp sgt i32 %0, 0
  br i1 %1, label %for.cond2.preheader, label %for.end11

for.cond2.preheader:                              ; preds = %for.cond2.preheader.lr.ph, %for.inc9
  %2 = phi i32 [ %8, %for.inc9 ], [ %0, %for.cond2.preheader.lr.ph ]
  %isolve.07 = phi i32 [ %inc10, %for.inc9 ], [ 0, %for.cond2.preheader.lr.ph ]
  %cmp34 = icmp sgt i32 %2, 0
  br i1 %cmp34, label %for.body4, label %for.inc9

for.body4:                                        ; preds = %for.cond2.preheader, %for.body4
  %indvars.iv = phi i64 [ %indvars.iv.next, %for.body4 ], [ 0, %for.cond2.preheader ]
  %3 = load ptr, ptr %m_data.i, align 8
  %arrayidx.i = getelementptr inbounds i32, ptr %3, i64 %indvars.iv
  %4 = load i32, ptr %arrayidx.i, align 4
  %5 = sext i32 %4 to i64
  %switch.gep = getelementptr inbounds [4 x ptr], ptr @switch.table._ZN10btSoftBody11staticSolveEi, i64 0, i64 %5
  %switch.load = load ptr, ptr %switch.gep, align 8
  tail call void %switch.load(ptr noundef nonnull %this, float noundef 1.000000e+00, float noundef 0.000000e+00), !callees !342
  %indvars.iv.next = add nuw nsw i64 %indvars.iv, 1
  %6 = load i32, ptr %m_size.i, align 4
  %7 = sext i32 %6 to i64
  %cmp3 = icmp slt i64 %indvars.iv.next, %7
  br i1 %cmp3, label %for.body4, label %for.inc9, !llvm.loop !356

for.inc9:                                         ; preds = %for.body4, %for.cond2.preheader
  %8 = phi i32 [ %2, %for.cond2.preheader ], [ %6, %for.body4 ]
  %inc10 = add nuw nsw i32 %isolve.07, 1
  %exitcond.not = icmp eq i32 %inc10, %iterations
  br i1 %exitcond.not, label %for.end11, label %for.cond2.preheader, !llvm.loop !357

for.end11:                                        ; preds = %for.inc9, %for.cond2.preheader.lr.ph, %entry
  ret void
}